ccopy_reg
_reconstructor
p0
(cpandas.core.frame
DataFrame
p1
c__builtin__
object
p2
Ntp3
Rp4
(dp5
S'_metadata'
p6
(lp7
sS'_typ'
p8
S'dataframe'
p9
sS'_data'
p10
g0
(cpandas.core.internals
BlockManager
p11
g2
Ntp12
Rp13
((lp14
cpandas.core.indexes.base
_new_Index
p15
(cpandas.core.indexes.base
Index
p16
(dp17
S'data'
p18
cnumpy.core.multiarray
_reconstruct
p19
(cnumpy
ndarray
p20
(I0
tp21
S'b'
p22
tp23
Rp24
(I1
(I13
tp25
cnumpy
dtype
p26
(S'O8'
p27
I0
I1
tp28
Rp29
(I3
S'|'
p30
NNNI-1
I-1
I63
tp31
bI00
(lp32
S'buy_at_utc'
p33
aS'buy_price'
p34
aS'dir'
p35
aS'sell_at_utc'
p36
aS'sell_price'
p37
aS'gain'
p38
aS'buy_at'
p39
aS'sell_at'
p40
aS'month'
p41
aS'weekday'
p42
aS'day'
p43
aS'hour'
p44
aS'delta'
p45
atp46
bsS'name'
p47
Nstp48
Rp49
ag15
(cpandas.core.indexes.numeric
Int64Index
p50
(dp51
g18
g19
(g20
(I0
tp52
g22
tp53
Rp54
(I1
(I5
tp55
g26
(S'i8'
p56
I0
I1
tp57
Rp58
(I3
S'<'
p59
NNNI-1
I-1
I0
tp60
bI00
S'\x00\x00\x00\x00\x00\x00\x00\x00\x00\x00\x00\x00\x00\x00\x00\x00\x00\x00\x00\x00\x00\x00\x00\x00\x00\x00\x00\x00\x00\x00\x00\x00\x00\x00\x00\x00\x00\x00\x00\x00'
p61
tp62
bsg47
Nstp63
Rp64
a(lp65
g19
(g20
(I0
tp66
g22
tp67
Rp68
(I1
(I1
I5
tp69
g26
(S'M8'
p70
I0
I1
tp71
Rp72
(I4
S'<'
p73
NNNI-1
I-1
I0
((dp74
(S'ns'
p75
I1
I1
I1
tp76
tp77
tp78
bI00
S'\x00(\xf8\nZ"&\x14\x000e ?+&\x14\x00\xd0u\x98}<&\x14\x00\xa02>\xbf@&\x14\x000T\x94\xf2A&\x14'
p79
tp80
bag19
(g20
(I0
tp81
g22
tp82
Rp83
(I1
(I1
I5
tp84
g26
(S'f8'
p85
I0
I1
tp86
Rp87
(I3
S'<'
p88
NNNI-1
I-1
I0
tp89
bI00
S'XV\x9a\x94\x82n\xf1?\xc6\xe1\xcc\xaf\xe6\x80\xf1?h\xae\xd3HKe\xf1?\x82V`\xc8\xeaV\xf1?\x1cB\x95\x9a=P\xf1?'
p90
tp91
bag19
(g20
(I0
tp92
g22
tp93
Rp94
(I1
(I1
I5
tp95
g29
I00
(lp96
I-1
aI-1
aI1
aI1
aI1
atp97
bag19
(g20
(I0
tp98
g22
tp99
Rp100
(I1
(I1
I5
tp101
g72
I00
S'\x00\xf8\xb4\xb0\x9b&&\x14\x00\x08"\x9d,,&\x14\x00H\x1543=&\x14\x00\x10\xfc\xf0JA&\x14\x00`X\t\xeeB&\x14'
p102
tp103
bag19
(g20
(I0
tp104
g22
tp105
Rp106
(I1
(I2
I5
tp107
g87
I00
S'^.\xe2;1k\xf1?\xb1\x8a72\x8f|\xf1?\xe9\xb2\x98\xd8|\\\xf1?)\x91D/\xa3X\xf1?\x16jM\xf3\x8eS\xf1?\xb423333 @\x8a43333%@\x0f\x01\x00\x00\x00\x805\xc0\xdc\xc6\xcc\xcc\xcc\xcc\x10@\xb423333 @'
p108
tp109
bag19
(g20
(I0
tp110
g22
tp111
Rp112
(I1
(I2
I5
tp113
g72
I00
S'\x00hil\xe6(&\x14\x00p\xd6\x81\xcb1&\x14\x00\x10\xe7\xf9\tC&\x14\x00\xe0\xa3\x9fKG&\x14\x00p\xc5\xf5~H&\x14\x008&\x12(-&\x14\x00H\x93\xfe\xb82&\x14\x00\x88\x86\x95\xbfC&\x14\x00PmR\xd7G&\x14\x00\xa0\xc9jzI&\x14'
p114
tp115
bag19
(g20
(I0
tp116
g22
tp117
Rp118
(I1
(I5
I5
tp119
g29
I00
(lp120
I1
aI1
aI1
aI1
aI1
aI0
aI0
aI0
aI0
aI0
aI4
aI4
aI4
aI4
aI4
aI7
aI10
aI15
aI16
aI17
aI78
aI17
aI13
aI10
aI18
atp121
ba(lp122
g15
(g16
(dp123
g18
g19
(g20
(I0
tp124
g22
tp125
Rp126
(I1
(I1
tp127
g29
I00
(lp128
g33
atp129
bsg47
Nstp130
Rp131
ag15
(g16
(dp132
g18
g19
(g20
(I0
tp133
g22
tp134
Rp135
(I1
(I1
tp136
g29
I00
(lp137
g34
atp138
bsg47
Nstp139
Rp140
ag15
(g16
(dp141
g18
g19
(g20
(I0
tp142
g22
tp143
Rp144
(I1
(I1
tp145
g29
I00
(lp146
g35
atp147
bsg47
Nstp148
Rp149
ag15
(g16
(dp150
g18
g19
(g20
(I0
tp151
g22
tp152
Rp153
(I1
(I1
tp154
g29
I00
(lp155
g36
atp156
bsg47
Nstp157
Rp158
ag15
(g16
(dp159
g18
g19
(g20
(I0
tp160
g22
tp161
Rp162
(I1
(I2
tp163
g29
I00
(lp164
g37
ag38
atp165
bsg47
Nstp166
Rp167
ag15
(g16
(dp168
g18
g19
(g20
(I0
tp169
g22
tp170
Rp171
(I1
(I2
tp172
g29
I00
(lp173
g39
ag40
atp174
bsg47
Nstp175
Rp176
ag15
(g16
(dp177
g18
g19
(g20
(I0
tp178
g22
tp179
Rp180
(I1
(I5
tp181
g29
I00
(lp182
g41
ag42
ag43
ag44
ag45
atp183
bsg47
Nstp184
Rp185
a(dp186
S'0.14.1'
p187
(dp188
S'axes'
p189
g14
sS'blocks'
p190
(lp191
(dp192
S'mgr_locs'
p193
c__builtin__
slice
p194
(I0
I1
I1
tp195
Rp196
sS'values'
p197
g68
sa(dp198
g193
g194
(I1
I2
I1
tp199
Rp200
sg197
g83
sa(dp201
g193
g194
(I2
I3
I1
tp202
Rp203
sg197
g94
sa(dp204
g193
g194
(I3
I4
I1
tp205
Rp206
sg197
g100
sa(dp207
g193
g194
(I4
I6
I1
tp208
Rp209
sg197
g106
sa(dp210
g193
g194
(I6
I8
I1
tp211
Rp212
sg197
g112
sa(dp213
g193
g194
(I8
I13
I1
tp214
Rp215
sg197
g118
sasstp216
bsb.